target datalayout = "e-m:e-p270:32:32-p271:32:32-p272:64:64-i64:64-i128:128-f80:128-n8:16:32:64-S128"
target triple = "x86_64-pc-linux-gnu"

%struct.ident_t = type { i32, i32, i32, i32, ptr }
%"struct.std::_Vector_base.19" = type { %"struct.std::_Vector_base<int, std::allocator<int>>::_Vector_impl" }
%"struct.std::_Vector_base<int, std::allocator<int>>::_Vector_impl" = type { %"struct.std::_Vector_base<int, std::allocator<int>>::_Vector_impl_data" }
%"struct.std::_Vector_base<int, std::allocator<int>>::_Vector_impl_data" = type { ptr, ptr, ptr }
%struct.Point3D = type { [3 x float] }
%"class.std::vector.18" = type { %"struct.std::_Vector_base.19" }
%struct.SparseNodeData.313 = type { %"class.std::vector.18", %"class.std::vector.314" }
%"class.std::vector.314" = type { %"struct.std::_Vector_base.315" }
%"struct.std::_Vector_base.315" = type { %"struct.std::_Vector_base<SinglePointData<float, false>, std::allocator<SinglePointData<float, false>>>::_Vector_impl" }
%"struct.std::_Vector_base<SinglePointData<float, false>, std::allocator<SinglePointData<float, false>>>::_Vector_impl" = type { %"struct.std::_Vector_base<SinglePointData<float, false>, std::allocator<SinglePointData<float, false>>>::_Vector_impl_data" }
%"struct.std::_Vector_base<SinglePointData<float, false>, std::allocator<SinglePointData<float, false>>>::_Vector_impl_data" = type { ptr, ptr, ptr }
%struct.SinglePointData = type { %struct.Point3D, float, float, float }

@1 = private unnamed_addr constant %struct.ident_t { i32 0, i32 514, i32 0, i32 22, ptr @0 }, align 8

; Function Attrs: mustprogress nounwind uwtable
define linkonce_odr noundef nonnull align 4 dereferenceable(12) ptr @_ZN7Point3DIfEmLIfEERS0_T_(ptr noundef nonnull align 4 dereferenceable(12) %0, float noundef %1) #4 comdat align 2 {
  %3 = alloca ptr, align 8
  %4 = alloca float, align 4
  store ptr %0, ptr %3, align 8
  store float %1, ptr %4, align 4
  %5 = load ptr, ptr %3, align 8
  %6 = load float, ptr %4, align 4
  %7 = getelementptr inbounds %struct.Point3D, ptr %5, i32 0, i32 0
  %8 = getelementptr inbounds [3 x float], ptr %7, i64 0, i64 0
  %9 = load float, ptr %8, align 4
  %10 = fmul float %9, %6
  store float %10, ptr %8, align 4
  %11 = load float, ptr %4, align 4
  %12 = getelementptr inbounds %struct.Point3D, ptr %5, i32 0, i32 0
  %13 = getelementptr inbounds [3 x float], ptr %12, i64 0, i64 1
  %14 = load float, ptr %13, align 4
  %15 = fmul float %14, %11
  store float %15, ptr %13, align 4
  %16 = load float, ptr %4, align 4
  %17 = getelementptr inbounds %struct.Point3D, ptr %5, i32 0, i32 0
  %18 = getelementptr inbounds [3 x float], ptr %17, i64 0, i64 2
  %19 = load float, ptr %18, align 4
  %20 = fmul float %19, %16
  store float %20, ptr %18, align 4
  ret ptr %5
}

; Function Attrs: mustprogress uwtable
define linkonce_odr noundef nonnull align 4 dereferenceable(12) ptr @_ZN7Point3DIfEdVIfEERS0_T_(ptr noundef nonnull align 4 dereferenceable(12) %0, float noundef %1) #5 comdat align 2 {
  %3 = alloca ptr, align 8
  %4 = alloca float, align 4
  store ptr %0, ptr %3, align 8
  store float %1, ptr %4, align 4
  %5 = load ptr, ptr %3, align 8
  %6 = load float, ptr %4, align 4
  %7 = fpext float %6 to double
  %8 = fdiv double 1.000000e+00, %7
  %9 = fptrunc double %8 to float
  %10 = call noundef nonnull align 4 dereferenceable(12) ptr @_ZN7Point3DIfEmLIfEERS0_T_(ptr noundef nonnull align 4 dereferenceable(12) %5, float noundef %9)
  ret ptr %10
}

; Function Attrs: mustprogress nounwind uwtable
define linkonce_odr noundef nonnull align 4 dereferenceable(24) ptr @_ZNSt6vectorI15SinglePointDataIfLb0EESaIS1_EEixEm(ptr noundef nonnull align 8 dereferenceable(24) %0, i64 noundef %1) #4 comdat align 2 {
  %3 = alloca ptr, align 8
  %4 = alloca i64, align 8
  store ptr %0, ptr %3, align 8
  store i64 %1, ptr %4, align 8
  %5 = load ptr, ptr %3, align 8
  %6 = getelementptr inbounds %"struct.std::_Vector_base.315", ptr %5, i32 0, i32 0
  %7 = getelementptr inbounds %"struct.std::_Vector_base<SinglePointData<float, false>, std::allocator<SinglePointData<float, false>>>::_Vector_impl_data", ptr %6, i32 0, i32 0
  %8 = load ptr, ptr %7, align 8
  %9 = load i64, ptr %4, align 8
  %10 = getelementptr inbounds %struct.SinglePointData, ptr %8, i64 %9
  ret ptr %10
}

; Function Attrs: mustprogress nounwind uwtable
define linkonce_odr noundef i64 @_ZNKSt6vectorI15SinglePointDataIfLb0EESaIS1_EE4sizeEv(ptr noundef nonnull align 8 dereferenceable(24) %0) #4 comdat align 2 {
  %2 = alloca ptr, align 8
  store ptr %0, ptr %2, align 8
  %3 = load ptr, ptr %2, align 8
  %4 = getelementptr inbounds %"struct.std::_Vector_base.315", ptr %3, i32 0, i32 0
  %5 = getelementptr inbounds %"struct.std::_Vector_base<SinglePointData<float, false>, std::allocator<SinglePointData<float, false>>>::_Vector_impl_data", ptr %4, i32 0, i32 1
  %6 = load ptr, ptr %5, align 8
  %7 = getelementptr inbounds %"struct.std::_Vector_base.315", ptr %3, i32 0, i32 0
  %8 = getelementptr inbounds %"struct.std::_Vector_base<SinglePointData<float, false>, std::allocator<SinglePointData<float, false>>>::_Vector_impl_data", ptr %7, i32 0, i32 0
  %9 = load ptr, ptr %8, align 8
  %10 = ptrtoint ptr %6 to i64
  %11 = ptrtoint ptr %9 to i64
  %12 = sub i64 %10, %11
  %13 = sdiv exact i64 %12, 24
  ret i64 %13
}

; Function Attrs: noreturn nounwind uwtable
define linkonce_odr hidden void @__clang_call_terminate(ptr noundef %0) #9 comdat {
  %2 = call ptr @__cxa_begin_catch(ptr %0) #3
  call void @_ZSt9terminatev() #27
  unreachable
}

; Function Attrs: mustprogress uwtable
define linkonce_odr noundef nonnull align 4 dereferenceable(24) ptr @_ZN15SinglePointDataIfLb0EEdVEf(ptr noundef nonnull align 4 dereferenceable(24) %0, float noundef %1) #5 comdat align 2 {
  %3 = alloca ptr, align 8
  %4 = alloca float, align 4
  store ptr %0, ptr %3, align 8
  store float %1, ptr %4, align 4
  %5 = load ptr, ptr %3, align 8
  %6 = load float, ptr %4, align 4
  %7 = getelementptr inbounds %struct.SinglePointData, ptr %5, i32 0, i32 0
  %8 = call noundef nonnull align 4 dereferenceable(12) ptr @_ZN7Point3DIfEdVIfEERS0_T_(ptr noundef nonnull align 4 dereferenceable(12) %7, float noundef %6)
  %9 = load float, ptr %4, align 4
  %10 = getelementptr inbounds %struct.SinglePointData, ptr %5, i32 0, i32 1
  %11 = load float, ptr %10, align 4
  %12 = fdiv float %11, %9
  store float %12, ptr %10, align 4
  %13 = load float, ptr %4, align 4
  %14 = getelementptr inbounds %struct.SinglePointData, ptr %5, i32 0, i32 2
  %15 = load float, ptr %14, align 4
  %16 = fdiv float %15, %13
  store float %16, ptr %14, align 4
  ret ptr %5
}

; Function Attrs: mustprogress nounwind uwtable
define linkonce_odr noundef nonnull align 4 dereferenceable(24) ptr @_ZN14SparseNodeDataI15SinglePointDataIfLb0EELi0EEixEi(ptr noundef nonnull align 8 dereferenceable(48) %0, i32 noundef %1) #4 comdat align 2 {
  %3 = alloca ptr, align 8
  %4 = alloca i32, align 4
  store ptr %0, ptr %3, align 8
  store i32 %1, ptr %4, align 4
  %5 = load ptr, ptr %3, align 8
  %6 = getelementptr inbounds %struct.SparseNodeData.313, ptr %5, i32 0, i32 1
  %7 = load i32, ptr %4, align 4
  %8 = sext i32 %7 to i64
  %9 = call noundef nonnull align 4 dereferenceable(24) ptr @_ZNSt6vectorI15SinglePointDataIfLb0EESaIS1_EEixEm(ptr noundef nonnull align 8 dereferenceable(24) %6, i64 noundef %8) #3
  ret ptr %9
}

; Function Attrs: mustprogress nounwind uwtable
define linkonce_odr noundef i64 @_ZNK14SparseNodeDataI15SinglePointDataIfLb0EELi0EE4sizeEv(ptr noundef nonnull align 8 dereferenceable(48) %0) #4 comdat align 2 {
  %2 = alloca ptr, align 8
  store ptr %0, ptr %2, align 8
  %3 = load ptr, ptr %2, align 8
  %4 = getelementptr inbounds %struct.SparseNodeData.313, ptr %3, i32 0, i32 1
  %5 = call noundef i64 @_ZNKSt6vectorI15SinglePointDataIfLb0EESaIS1_EE4sizeEv(ptr noundef nonnull align 8 dereferenceable(24) %4) #3
  ret i64 %5
}

; Function Attrs: norecurse nounwind uwtable
define internal void @_ZNK6OctreeIfE25_densifyInterpolationInfoILb0EEE14SparseNodeDataI15SinglePointDataIfXT_EELi0EERKSt6vectorINS0_11PointSampleESaIS7_EEfi.omp_outlined(ptr noalias noundef %0, ptr noalias noundef %1, ptr noundef nonnull align 8 dereferenceable(48) %2) #17 personality ptr @__gxx_personality_v0 {
  %4 = alloca ptr, align 8
  %5 = alloca ptr, align 8
  %6 = alloca ptr, align 8
  %7 = alloca i32, align 4
  %8 = alloca i32, align 4
  %9 = alloca i32, align 4
  %10 = alloca i32, align 4
  %11 = alloca i32, align 4
  %12 = alloca i32, align 4
  %13 = alloca i32, align 4
  %14 = alloca i32, align 4
  %15 = alloca i32, align 4
  %16 = alloca float, align 4
  store ptr %0, ptr %4, align 8
  store ptr %1, ptr %5, align 8
  store ptr %2, ptr %6, align 8
  %17 = load ptr, ptr %6, align 8
  %18 = invoke noundef i64 @_ZNK14SparseNodeDataI15SinglePointDataIfLb0EELi0EE4sizeEv(ptr noundef nonnull align 8 dereferenceable(48) %17)
          to label %19 unwind label %74

19:                                               ; preds = %3
  %20 = trunc i64 %18 to i32
  store i32 %20, ptr %8, align 4
  %21 = load i32, ptr %8, align 4
  %22 = sub nsw i32 %21, 0
  %23 = sdiv i32 %22, 1
  %24 = sub nsw i32 %23, 1
  store i32 %24, ptr %9, align 4
  store i32 0, ptr %10, align 4
  %25 = load i32, ptr %8, align 4
  %26 = icmp slt i32 0, %25
  br i1 %26, label %27, label %73

27:                                               ; preds = %19
  store i32 0, ptr %11, align 4
  %28 = load i32, ptr %9, align 4
  store i32 %28, ptr %12, align 4
  store i32 1, ptr %13, align 4
  store i32 0, ptr %14, align 4
  %29 = load ptr, ptr %4, align 8
  %30 = load i32, ptr %29, align 4
  call void @__kmpc_for_static_init_4(ptr @1, i32 %30, i32 34, ptr %14, ptr %11, ptr %12, ptr %13, i32 1, i32 1)
  %31 = load i32, ptr %12, align 4
  %32 = load i32, ptr %9, align 4
  %33 = icmp sgt i32 %31, %32
  br i1 %33, label %34, label %36

34:                                               ; preds = %27
  %35 = load i32, ptr %9, align 4
  br label %38

36:                                               ; preds = %27
  %37 = load i32, ptr %12, align 4
  br label %38

38:                                               ; preds = %36, %34
  %39 = phi i32 [ %35, %34 ], [ %37, %36 ]
  store i32 %39, ptr %12, align 4
  %40 = load i32, ptr %11, align 4
  store i32 %40, ptr %7, align 4
  br label %41

41:                                               ; preds = %66, %38
  %42 = load i32, ptr %7, align 4
  %43 = load i32, ptr %12, align 4
  %44 = icmp sle i32 %42, %43
  br i1 %44, label %45, label %69

45:                                               ; preds = %41
  %46 = load i32, ptr %7, align 4
  %47 = mul nsw i32 %46, 1
  %48 = add nsw i32 0, %47
  store i32 %48, ptr %15, align 4
  %49 = load i32, ptr %15, align 4
  %50 = invoke noundef nonnull align 4 dereferenceable(24) ptr @_ZN14SparseNodeDataI15SinglePointDataIfLb0EELi0EEixEi(ptr noundef nonnull align 8 dereferenceable(48) %17, i32 noundef %49)
          to label %51 unwind label %74

51:                                               ; preds = %45
  %52 = getelementptr inbounds %struct.SinglePointData, ptr %50, i32 0, i32 1
  %53 = load float, ptr %52, align 4
  store float %53, ptr %16, align 4
  %54 = load float, ptr %16, align 4
  %55 = load i32, ptr %15, align 4
  %56 = invoke noundef nonnull align 4 dereferenceable(24) ptr @_ZN14SparseNodeDataI15SinglePointDataIfLb0EELi0EEixEi(ptr noundef nonnull align 8 dereferenceable(48) %17, i32 noundef %55)
          to label %57 unwind label %74

57:                                               ; preds = %51
  %58 = invoke noundef nonnull align 4 dereferenceable(24) ptr @_ZN15SinglePointDataIfLb0EEdVEf(ptr noundef nonnull align 4 dereferenceable(24) %56, float noundef %54)
          to label %59 unwind label %74

59:                                               ; preds = %57
  %60 = load float, ptr %16, align 4
  %61 = load i32, ptr %15, align 4
  %62 = invoke noundef nonnull align 4 dereferenceable(24) ptr @_ZN14SparseNodeDataI15SinglePointDataIfLb0EELi0EEixEi(ptr noundef nonnull align 8 dereferenceable(48) %17, i32 noundef %61)
          to label %63 unwind label %74

63:                                               ; preds = %59
  %64 = getelementptr inbounds %struct.SinglePointData, ptr %62, i32 0, i32 1
  store float %60, ptr %64, align 4
  br label %65

65:                                               ; preds = %63
  br label %66

66:                                               ; preds = %65
  %67 = load i32, ptr %7, align 4
  %68 = add nsw i32 %67, 1
  store i32 %68, ptr %7, align 4
  br label %41

69:                                               ; preds = %41
  br label %70

70:                                               ; preds = %69
  %71 = load ptr, ptr %4, align 8
  %72 = load i32, ptr %71, align 4
  call void @__kmpc_for_static_fini(ptr @1, i32 %72)
  br label %73

73:                                               ; preds = %70, %19
  ret void

74:                                               ; preds = %59, %57, %51, %45, %3
  %75 = landingpad { ptr, i32 }
          catch ptr null
  %76 = extractvalue { ptr, i32 } %75, 0
  call void @__clang_call_terminate(ptr %76) #27
  unreachable
}