; Function Attrs: norecurse nounwind uwtable
define internal void @_ZNK6OctreeIfE25_densifyInterpolationInfoILb0EEE14SparseNodeDataI15SinglePointDataIfXT_EELi0EERKSt6vectorINS0_11PointSampleESaIS7_EEfi.omp_outlined(ptr noalias nocapture noundef readonly %0, ptr noalias nocapture readnone %1, ptr nocapture noundef nonnull readonly align 8 dereferenceable(48) %2) #23 personality ptr @__gxx_personality_v0 {
  %4 = alloca i32, align 4
  %5 = alloca i32, align 4
  %6 = alloca i32, align 4
  %7 = alloca i32, align 4
  %8 = getelementptr inbounds i8, ptr %2, i64 24
  %9 = getelementptr inbounds i8, ptr %2, i64 32
  %10 = load ptr, ptr %9, align 8
  %11 = load ptr, ptr %8, align 8
  %12 = ptrtoint ptr %10 to i64
  %13 = ptrtoint ptr %11 to i64
  %14 = sub i64 %12, %13
  %15 = sdiv exact i64 %14, 24
  %16 = trunc i64 %15 to i32
  %17 = icmp sgt i32 %16, 0
  br i1 %17, label %18, label %43

18:                                               ; preds = %3
  %19 = add nsw i32 %16, -1
  store i32 0, ptr %4, align 4
  store i32 %19, ptr %5, align 4
  store i32 1, ptr %6, align 4
  store i32 0, ptr %7, align 4
  %20 = load i32, ptr %0, align 4
  call void @__kmpc_for_static_init_4(ptr nonnull @1, i32 %20, i32 34, ptr nonnull %7, ptr nonnull %4, ptr nonnull %5, ptr nonnull %6, i32 1, i32 1)
  %21 = load i32, ptr %5, align 4
  %22 = call i32 @llvm.smin.i32(i32 %21, i32 %19)
  store i32 %22, ptr %5, align 4
  %23 = load i32, ptr %4, align 4
  %.not15 = icmp sgt i32 %23, %22
  br i1 %.not15, label %._crit_edge, label %.lr.ph.preheader

.lr.ph.preheader:                                 ; preds = %18
  %24 = sext i32 %23 to i64
  br label %.lr.ph

.lr.ph:                                           ; preds = %.lr.ph.preheader, %.lr.ph
  %indvars.iv = phi i64 [ %24, %.lr.ph.preheader ], [ %indvars.iv.next, %.lr.ph ]
  %25 = load ptr, ptr %8, align 8
  %26 = getelementptr inbounds %struct.SinglePointData, ptr %25, i64 %indvars.iv
  %27 = load float, ptr %26, align 4
  %28 = getelementptr inbounds i8, ptr %26, i64 4
  %29 = load <4 x float>, ptr %28, align 4
  %30 = extractelement <4 x float> %29, i64 2
  %31 = fdiv float 1.000000e+00, %30
  %32 = fmul float %31, %27
  store float %32, ptr %26, align 4
  %33 = shufflevector <4 x float> %29, <4 x float> poison, <2 x i32> <i32 poison, i32 2>
  %34 = insertelement <2 x float> %33, float %31, i64 0
  %35 = shufflevector <2 x float> %34, <2 x float> poison, <4 x i32> <i32 0, i32 0, i32 1, i32 1>
  %36 = fmul <4 x float> %29, %35
  %37 = fdiv <4 x float> %29, %35
  %38 = shufflevector <4 x float> %36, <4 x float> %37, <4 x i32> <i32 0, i32 1, i32 6, i32 7>
  store <4 x float> %38, ptr %28, align 4
  %39 = load ptr, ptr %8, align 8
  %40 = getelementptr inbounds %struct.SinglePointData, ptr %39, i64 %indvars.iv, i32 1
  store float %30, ptr %40, align 4
  %indvars.iv.next = add nsw i64 %indvars.iv, 1
  %41 = load i32, ptr %5, align 4
  %42 = sext i32 %41 to i64
  %.not.not = icmp slt i64 %indvars.iv, %42
  br i1 %.not.not, label %.lr.ph, label %._crit_edge

._crit_edge:                                      ; preds = %.lr.ph, %18
  call void @__kmpc_for_static_fini(ptr nonnull @1, i32 %20)
  br label %43

43:                                               ; preds = %._crit_edge, %3
  ret void
}